target datalayout = "e-m:e-p270:32:32-p271:32:32-p272:64:64-i64:64-i128:128-f80:128-n8:16:32:64-S128"
target triple = "x86_64-unknown-linux-gnu"

%class.region = type { ptr, ptr, ptr, ptr, ptr }

; Function Attrs: mustprogress nounwind uwtable
define linkonce_odr hidden noundef ptr @_Z19end_of_default_pagePc(ptr noundef %p) #5 comdat {
entry:
  %p.addr = alloca ptr, align 8
  store ptr %p, ptr %p.addr, align 8
  %0 = load ptr, ptr %p.addr, align 8
  %add.ptr = getelementptr inbounds i8, ptr %0, i64 8184
  ret ptr %add.ptr
}

; Function Attrs: mustprogress uwtable
define linkonce_odr hidden void @_ZN6region13allocate_pageEv(ptr noundef nonnull align 8 dereferenceable(40) %this) #4 comdat align 2 {
entry:
  %this.addr = alloca ptr, align 8
  store ptr %this, ptr %this.addr, align 8
  %this1 = load ptr, ptr %this.addr, align 8
  %m_curr_page = getelementptr inbounds %class.region, ptr %this1, i32 0, i32 0
  %0 = load ptr, ptr %m_curr_page, align 8
  %m_free_pages = getelementptr inbounds %class.region, ptr %this1, i32 0, i32 3
  %call = call noundef ptr @_Z21allocate_default_pagePcRS_(ptr noundef %0, ptr noundef nonnull align 8 dereferenceable(8) %m_free_pages)
  %m_curr_page2 = getelementptr inbounds %class.region, ptr %this1, i32 0, i32 0
  store ptr %call, ptr %m_curr_page2, align 8
  %m_curr_page3 = getelementptr inbounds %class.region, ptr %this1, i32 0, i32 0
  %1 = load ptr, ptr %m_curr_page3, align 8
  %m_curr_ptr = getelementptr inbounds %class.region, ptr %this1, i32 0, i32 1
  store ptr %1, ptr %m_curr_ptr, align 8
  %m_curr_page4 = getelementptr inbounds %class.region, ptr %this1, i32 0, i32 0
  %2 = load ptr, ptr %m_curr_page4, align 8
  %call5 = call noundef ptr @_Z19end_of_default_pagePc(ptr noundef %2)
  %m_curr_end_ptr = getelementptr inbounds %class.region, ptr %this1, i32 0, i32 2
  store ptr %call5, ptr %m_curr_end_ptr, align 8
  ret void
}

; Function Attrs: mustprogress uwtable
define hidden noundef ptr @_ZN6region8allocateEm(ptr noundef nonnull align 8 dereferenceable(40) %this, i64 noundef %size) #4 align 2 {
entry:
  %retval = alloca ptr, align 8
  %this.addr = alloca ptr, align 8
  %size.addr = alloca i64, align 8
  %new_curr_ptr = alloca ptr, align 8
  %result = alloca ptr, align 8
  %result7 = alloca ptr, align 8
  %result22 = alloca ptr, align 8
  store ptr %this, ptr %this.addr, align 8
  store i64 %size, ptr %size.addr, align 8
  %this1 = load ptr, ptr %this.addr, align 8
  %m_curr_ptr = getelementptr inbounds %class.region, ptr %this1, i32 0, i32 1
  %0 = load ptr, ptr %m_curr_ptr, align 8
  %1 = load i64, ptr %size.addr, align 8
  %add.ptr = getelementptr inbounds i8, ptr %0, i64 %1
  store ptr %add.ptr, ptr %new_curr_ptr, align 8
  %2 = load ptr, ptr %new_curr_ptr, align 8
  %m_curr_end_ptr = getelementptr inbounds %class.region, ptr %this1, i32 0, i32 2
  %3 = load ptr, ptr %m_curr_end_ptr, align 8
  %cmp = icmp ult ptr %2, %3
  br i1 %cmp, label %if.then, label %if.else

if.then:                                          ; preds = %entry
  %m_curr_ptr2 = getelementptr inbounds %class.region, ptr %this1, i32 0, i32 1
  %4 = load ptr, ptr %m_curr_ptr2, align 8
  store ptr %4, ptr %result, align 8
  %5 = load ptr, ptr %new_curr_ptr, align 8
  %6 = ptrtoint ptr %5 to i64
  %shr = lshr i64 %6, 3
  %7 = load ptr, ptr %new_curr_ptr, align 8
  %8 = ptrtoint ptr %7 to i64
  %and = and i64 %8, 7
  %cmp3 = icmp ne i64 %and, 0
  %conv = zext i1 %cmp3 to i64
  %add = add i64 %shr, %conv
  %shl = shl i64 %add, 3
  %9 = inttoptr i64 %shl to ptr
  %m_curr_ptr4 = getelementptr inbounds %class.region, ptr %this1, i32 0, i32 1
  store ptr %9, ptr %m_curr_ptr4, align 8
  %10 = load ptr, ptr %result, align 8
  store ptr %10, ptr %retval, align 8
  br label %return

if.else:                                          ; preds = %entry
  %11 = load i64, ptr %size.addr, align 8
  %cmp5 = icmp ult i64 %11, 8184
  br i1 %cmp5, label %if.then6, label %if.else20

if.then6:                                         ; preds = %if.else
  call void @_ZN6region13allocate_pageEv(ptr noundef nonnull align 8 dereferenceable(40) %this1)
  %m_curr_ptr8 = getelementptr inbounds %class.region, ptr %this1, i32 0, i32 1
  %12 = load ptr, ptr %m_curr_ptr8, align 8
  store ptr %12, ptr %result7, align 8
  %13 = load i64, ptr %size.addr, align 8
  %m_curr_ptr9 = getelementptr inbounds %class.region, ptr %this1, i32 0, i32 1
  %14 = load ptr, ptr %m_curr_ptr9, align 8
  %add.ptr10 = getelementptr inbounds i8, ptr %14, i64 %13
  store ptr %add.ptr10, ptr %m_curr_ptr9, align 8
  %m_curr_ptr11 = getelementptr inbounds %class.region, ptr %this1, i32 0, i32 1
  %15 = load ptr, ptr %m_curr_ptr11, align 8
  %16 = ptrtoint ptr %15 to i64
  %shr12 = lshr i64 %16, 3
  %m_curr_ptr13 = getelementptr inbounds %class.region, ptr %this1, i32 0, i32 1
  %17 = load ptr, ptr %m_curr_ptr13, align 8
  %18 = ptrtoint ptr %17 to i64
  %and14 = and i64 %18, 7
  %cmp15 = icmp ne i64 %and14, 0
  %conv16 = zext i1 %cmp15 to i64
  %add17 = add i64 %shr12, %conv16
  %shl18 = shl i64 %add17, 3
  %19 = inttoptr i64 %shl18 to ptr
  %m_curr_ptr19 = getelementptr inbounds %class.region, ptr %this1, i32 0, i32 1
  store ptr %19, ptr %m_curr_ptr19, align 8
  %20 = load ptr, ptr %result7, align 8
  store ptr %20, ptr %retval, align 8
  br label %return

if.else20:                                        ; preds = %if.else
  %m_curr_page = getelementptr inbounds %class.region, ptr %this1, i32 0, i32 0
  %21 = load ptr, ptr %m_curr_page, align 8
  %22 = load i64, ptr %size.addr, align 8
  %call = call noundef ptr @_Z13allocate_pagePcm(ptr noundef %21, i64 noundef %22)
  %m_curr_page21 = getelementptr inbounds %class.region, ptr %this1, i32 0, i32 0
  store ptr %call, ptr %m_curr_page21, align 8
  %m_curr_page23 = getelementptr inbounds %class.region, ptr %this1, i32 0, i32 0
  %23 = load ptr, ptr %m_curr_page23, align 8
  store ptr %23, ptr %result22, align 8
  call void @_ZN6region13allocate_pageEv(ptr noundef nonnull align 8 dereferenceable(40) %this1)
  %24 = load ptr, ptr %result22, align 8
  store ptr %24, ptr %retval, align 8
  br label %return

return:                                           ; preds = %if.else20, %if.then6, %if.then
  %25 = load ptr, ptr %retval, align 8
  ret ptr %25
}