; Function Attrs: mustprogress uwtable
define hidden noundef ptr @_ZN6region8allocateEm(ptr noundef nonnull align 8 dereferenceable(40) %this, i64 noundef %size) local_unnamed_addr #3 align 2 {
entry:
  %m_curr_ptr = getelementptr inbounds nuw i8, ptr %this, i64 8
  %0 = load ptr, ptr %m_curr_ptr, align 8
  %add.ptr = getelementptr inbounds i8, ptr %0, i64 %size
  %m_curr_end_ptr = getelementptr inbounds nuw i8, ptr %this, i64 16
  %1 = load ptr, ptr %m_curr_end_ptr, align 8
  %cmp = icmp ult ptr %add.ptr, %1
  br i1 %cmp, label %if.then, label %if.else

if.then:                                          ; preds = %entry
  %2 = ptrtoint ptr %add.ptr to i64
  %and = and i64 %2, 7
  %cmp3.not = icmp eq i64 %and, 0
  %add8 = select i1 %cmp3.not, i64 0, i64 8
  %shr9 = add i64 %add8, %2
  %shl = and i64 %shr9, -8
  %3 = inttoptr i64 %shl to ptr
  store ptr %3, ptr %m_curr_ptr, align 8
  br label %return

if.else:                                          ; preds = %entry
  %cmp5 = icmp ult i64 %size, 8184
  %4 = load ptr, ptr %this, align 8
  br i1 %cmp5, label %if.then6, label %if.else20

if.then6:                                         ; preds = %if.else
  %m_free_pages.i = getelementptr inbounds nuw i8, ptr %this, i64 24
  %call.i = tail call noundef ptr @_Z21allocate_default_pagePcRS_(ptr noundef %4, ptr noundef nonnull align 8 dereferenceable(8) %m_free_pages.i)
  store ptr %call.i, ptr %this, align 8
  %add.ptr.i.i = getelementptr inbounds nuw i8, ptr %call.i, i64 8184
  store ptr %add.ptr.i.i, ptr %m_curr_end_ptr, align 8
  %add.ptr10 = getelementptr inbounds nuw i8, ptr %call.i, i64 %size
  %5 = ptrtoint ptr %add.ptr10 to i64
  %and14 = and i64 %5, 7
  %cmp15.not = icmp eq i64 %and14, 0
  %add176 = select i1 %cmp15.not, i64 0, i64 8
  %shr127 = add i64 %add176, %5
  %shl18 = and i64 %shr127, -8
  %6 = inttoptr i64 %shl18 to ptr
  store ptr %6, ptr %m_curr_ptr, align 8
  br label %return

if.else20:                                        ; preds = %if.else
  %call = tail call noundef ptr @_Z13allocate_pagePcm(ptr noundef %4, i64 noundef %size)
  store ptr %call, ptr %this, align 8
  %m_free_pages.i10 = getelementptr inbounds nuw i8, ptr %this, i64 24
  %call.i11 = tail call noundef ptr @_Z21allocate_default_pagePcRS_(ptr noundef %call, ptr noundef nonnull align 8 dereferenceable(8) %m_free_pages.i10)
  store ptr %call.i11, ptr %this, align 8
  store ptr %call.i11, ptr %m_curr_ptr, align 8
  %add.ptr.i.i13 = getelementptr inbounds nuw i8, ptr %call.i11, i64 8184
  store ptr %add.ptr.i.i13, ptr %m_curr_end_ptr, align 8
  br label %return

return:                                           ; preds = %if.else20, %if.then6, %if.then
  %retval.0 = phi ptr [ %0, %if.then ], [ %call.i, %if.then6 ], [ %call, %if.else20 ]
  ret ptr %retval.0
}